; Function Attrs: nounwind uwtable
define hidden i64 @SDL_IOprintf_REAL(ptr noundef %0, ptr noundef %1, ...) local_unnamed_addr #0 {
  %3 = alloca [1 x %struct.__va_list_tag], align 16
  %4 = alloca ptr, align 8
  call void @llvm.lifetime.start.p0(i64 24, ptr nonnull %3) #18
  call void @llvm.lifetime.start.p0(i64 8, ptr nonnull %4) #18
  call void @llvm.va_start.p0(ptr nonnull %3)
  %5 = call i32 @SDL_vasprintf_REAL(ptr noundef nonnull %4, ptr noundef %1, ptr noundef nonnull %3) #18
  call void @llvm.va_end.p0(ptr nonnull %3)
  %6 = icmp slt i32 %5, 0
  br i1 %6, label %32, label %7

7:                                                ; preds = %2
  %8 = load ptr, ptr %4, align 8
  %9 = zext nneg i32 %5 to i64
  %.not.i = icmp eq ptr %0, null
  br i1 %.not.i, label %10, label %12

10:                                               ; preds = %7
  %11 = call zeroext i1 (ptr, ...) @SDL_SetError_REAL(ptr noundef nonnull @.str.2, ptr noundef nonnull @.str.11) #18
  br label %SDL_WriteIO_REAL.exit

12:                                               ; preds = %7
  %13 = getelementptr inbounds nuw i8, ptr %0, i64 32
  %14 = load ptr, ptr %13, align 8
  %.not16.i = icmp eq ptr %14, null
  %15 = getelementptr inbounds nuw i8, ptr %0, i64 64
  br i1 %.not16.i, label %16, label %18

16:                                               ; preds = %12
  store i32 4, ptr %15, align 8
  %17 = call zeroext i1 (ptr, ...) @SDL_SetError_REAL(ptr noundef nonnull @.str.18) #18
  br label %SDL_WriteIO_REAL.exit

18:                                               ; preds = %12
  store i32 0, ptr %15, align 8
  %19 = call zeroext i1 @SDL_ClearError_REAL() #18
  %20 = icmp eq i32 %5, 0
  br i1 %20, label %SDL_WriteIO_REAL.exit, label %21

21:                                               ; preds = %18
  %22 = load ptr, ptr %13, align 8
  %23 = getelementptr inbounds nuw i8, ptr %0, i64 56
  %24 = load ptr, ptr %23, align 8
  %25 = call i64 %22(ptr noundef %24, ptr noundef %8, i64 noundef %9, ptr noundef nonnull %15) #18
  %26 = icmp eq i64 %25, 0
  br i1 %26, label %27, label %SDL_WriteIO_REAL.exit

27:                                               ; preds = %21
  %28 = load i32, ptr %15, align 8
  %29 = icmp eq i32 %28, 0
  br i1 %29, label %30, label %SDL_WriteIO_REAL.exit

30:                                               ; preds = %27
  store i32 1, ptr %15, align 8
  br label %SDL_WriteIO_REAL.exit

SDL_WriteIO_REAL.exit:                            ; preds = %10, %16, %18, %21, %27, %30
  %.0.i = phi i64 [ 0, %16 ], [ 0, %10 ], [ 0, %18 ], [ 0, %30 ], [ 0, %27 ], [ %25, %21 ]
  %31 = load ptr, ptr %4, align 8
  call void @SDL_free_REAL(ptr noundef %31) #18
  br label %32

32:                                               ; preds = %2, %SDL_WriteIO_REAL.exit
  %.0 = phi i64 [ %.0.i, %SDL_WriteIO_REAL.exit ], [ 0, %2 ]
  call void @llvm.lifetime.end.p0(i64 8, ptr nonnull %4) #18
  call void @llvm.lifetime.end.p0(i64 24, ptr nonnull %3) #18
  ret i64 %.0
}